; Function Attrs: mustprogress nounwind uwtable
define dso_local { i64, i32 } @_ZNK5clang6format21BreakableBlockComment21getSplitAfterLastLineEj(ptr noundef nonnull align 8 dereferenceable(860) %0, i32 noundef %1) unnamed_addr #0 align 2 {
  %3 = alloca %"class.llvm::StringRef", align 8
  %4 = getelementptr inbounds nuw i8, ptr %0, i64 852
  %5 = load i8, ptr %4, align 4
  %6 = trunc i8 %5 to i1
  br i1 %6, label %7, label %28

7:                                                ; preds = %2
  %8 = getelementptr inbounds nuw i8, ptr %0, i64 304
  %9 = load ptr, ptr %8, align 8
  %10 = tail call noundef i64 @_ZNK4llvm15SmallVectorBaseIjE4sizeEv(ptr noundef nonnull align 8 dereferenceable(16) %8) #21
  %11 = getelementptr inbounds %"class.llvm::StringRef", ptr %9, i64 %10
  %12 = getelementptr inbounds i8, ptr %11, i64 -16
  %13 = zext i32 %1 to i64
  %14 = getelementptr inbounds i8, ptr %11, i64 -8
  %15 = load i64, ptr %14, align 8
  %.sroa.speculated5.i = tail call i64 @llvm.umin.i64(i64 %15, i64 %13)
  %16 = load ptr, ptr %12, align 8
  %17 = getelementptr inbounds i8, ptr %16, i64 %.sroa.speculated5.i
  %18 = sub i64 %15, %.sroa.speculated5.i
  store ptr %17, ptr %3, align 8
  %19 = getelementptr inbounds nuw i8, ptr %3, i64 8
  store i64 %18, ptr %19, align 8
  %20 = call noundef i64 @_ZNK4llvm9StringRef16find_last_not_ofES0_m(ptr noundef nonnull align 8 dereferenceable(16) %3, ptr nonnull @.str.48, i64 5, i64 noundef -1) #21
  %21 = add i64 %20, 1
  %22 = load i64, ptr %19, align 8
  %.sroa.speculated.i = call i64 @llvm.umin.i64(i64 %21, i64 %22)
  %.neg.i = sub i64 %22, %18
  %23 = add i64 %.neg.i, %.sroa.speculated.i
  %.sroa.speculated.i.i.i = call i64 @llvm.umin.i64(i64 %22, i64 %23)
  %24 = icmp eq i64 %.sroa.speculated.i.i.i, 0
  br i1 %24, label %28, label %25

25:                                               ; preds = %7
  %26 = sub i64 %22, %.sroa.speculated.i.i.i
  %27 = trunc i64 %26 to i32
  br label %28

28:                                               ; preds = %2, %7, %25
  %.sroa.05.0 = phi i64 [ %.sroa.speculated.i.i.i, %25 ], [ -1, %7 ], [ -1, %2 ]
  %.sroa.3.0 = phi i32 [ %27, %25 ], [ 0, %7 ], [ 0, %2 ]
  %.fca.0.insert = insertvalue { i64, i32 } poison, i64 %.sroa.05.0, 0
  %.fca.1.insert = insertvalue { i64, i32 } %.fca.0.insert, i32 %.sroa.3.0, 1
  ret { i64, i32 } %.fca.1.insert
}